target datalayout = "e-m:e-p270:32:32-p271:32:32-p272:64:64-i64:64-i128:128-f80:128-n8:16:32:64-S128"
target triple = "x86_64-unknown-linux-gnu"

%"class.icu_75::UTF16CollationIterator" = type { %"class.icu_75::CollationIterator.base", ptr, ptr, ptr }
%"class.icu_75::CollationIterator.base" = type <{ %"class.icu_75::UObject", ptr, ptr, %"class.icu_75::CollationIterator::CEBuffer", i32, [4 x i8], ptr, i32, i8 }>
%"class.icu_75::UObject" = type { ptr }
%"class.icu_75::CollationIterator::CEBuffer" = type { i32, %"class.icu_75::MaybeStackArray.0" }
%"class.icu_75::MaybeStackArray.0" = type { ptr, i32, i8, [40 x i64] }

; Function Attrs: mustprogress uwtable
define void @_ZN6icu_7522UTF16CollationIteratorC2ERKS0_PKDs(ptr noundef nonnull align 8 dereferenceable(416) %this, ptr noundef nonnull align 8 dereferenceable(416) %other, ptr noundef %newText) unnamed_addr #1 align 2 {
entry:
  %this.addr = alloca ptr, align 8
  %other.addr = alloca ptr, align 8
  %newText.addr = alloca ptr, align 8
  store ptr %this, ptr %this.addr, align 8
  store ptr %other, ptr %other.addr, align 8
  store ptr %newText, ptr %newText.addr, align 8
  %this1 = load ptr, ptr %this.addr, align 8
  %0 = load ptr, ptr %other.addr, align 8
  call void @_ZN6icu_7517CollationIteratorC2ERKS0_(ptr noundef nonnull align 8 dereferenceable(389) %this1, ptr noundef nonnull align 8 dereferenceable(389) %0)
  store ptr getelementptr inbounds ({ [18 x ptr] }, ptr @_ZTVN6icu_7522UTF16CollationIteratorE, i32 0, i32 0, i32 2), ptr %this1, align 8
  %start = getelementptr inbounds %"class.icu_75::UTF16CollationIterator", ptr %this1, i32 0, i32 1
  %1 = load ptr, ptr %newText.addr, align 8
  store ptr %1, ptr %start, align 8
  %pos = getelementptr inbounds %"class.icu_75::UTF16CollationIterator", ptr %this1, i32 0, i32 2
  %2 = load ptr, ptr %newText.addr, align 8
  %3 = load ptr, ptr %other.addr, align 8
  %pos2 = getelementptr inbounds %"class.icu_75::UTF16CollationIterator", ptr %3, i32 0, i32 2
  %4 = load ptr, ptr %pos2, align 8
  %5 = load ptr, ptr %other.addr, align 8
  %start3 = getelementptr inbounds %"class.icu_75::UTF16CollationIterator", ptr %5, i32 0, i32 1
  %6 = load ptr, ptr %start3, align 8
  %sub.ptr.lhs.cast = ptrtoint ptr %4 to i64
  %sub.ptr.rhs.cast = ptrtoint ptr %6 to i64
  %sub.ptr.sub = sub i64 %sub.ptr.lhs.cast, %sub.ptr.rhs.cast
  %sub.ptr.div = sdiv exact i64 %sub.ptr.sub, 2
  %add.ptr = getelementptr inbounds i16, ptr %2, i64 %sub.ptr.div
  store ptr %add.ptr, ptr %pos, align 8
  %limit = getelementptr inbounds %"class.icu_75::UTF16CollationIterator", ptr %this1, i32 0, i32 3
  %7 = load ptr, ptr %other.addr, align 8
  %limit4 = getelementptr inbounds %"class.icu_75::UTF16CollationIterator", ptr %7, i32 0, i32 3
  %8 = load ptr, ptr %limit4, align 8
  %cmp = icmp eq ptr %8, null
  br i1 %cmp, label %cond.true, label %cond.false

cond.true:                                        ; preds = %entry
  br label %cond.end

cond.false:                                       ; preds = %entry
  %9 = load ptr, ptr %newText.addr, align 8
  %10 = load ptr, ptr %other.addr, align 8
  %limit5 = getelementptr inbounds %"class.icu_75::UTF16CollationIterator", ptr %10, i32 0, i32 3
  %11 = load ptr, ptr %limit5, align 8
  %12 = load ptr, ptr %other.addr, align 8
  %start6 = getelementptr inbounds %"class.icu_75::UTF16CollationIterator", ptr %12, i32 0, i32 1
  %13 = load ptr, ptr %start6, align 8
  %sub.ptr.lhs.cast7 = ptrtoint ptr %11 to i64
  %sub.ptr.rhs.cast8 = ptrtoint ptr %13 to i64
  %sub.ptr.sub9 = sub i64 %sub.ptr.lhs.cast7, %sub.ptr.rhs.cast8
  %sub.ptr.div10 = sdiv exact i64 %sub.ptr.sub9, 2
  %add.ptr11 = getelementptr inbounds i16, ptr %9, i64 %sub.ptr.div10
  br label %cond.end

cond.end:                                         ; preds = %cond.false, %cond.true
  %cond = phi ptr [ null, %cond.true ], [ %add.ptr11, %cond.false ]
  store ptr %cond, ptr %limit, align 8
  ret void
}