; Function Attrs: mustprogress uwtable
define void @_ZN6icu_7522UTF16CollationIteratorC2ERKS0_PKDs(ptr noundef nonnull align 8 dereferenceable(416) %this, ptr noundef nonnull align 8 dereferenceable(416) %other, ptr noundef %newText) unnamed_addr #1 align 2 {
entry:
  tail call void @_ZN6icu_7517CollationIteratorC2ERKS0_(ptr noundef nonnull align 8 dereferenceable(389) %this, ptr noundef nonnull align 8 dereferenceable(389) %other)
  store ptr getelementptr inbounds ({ [18 x ptr] }, ptr @_ZTVN6icu_7522UTF16CollationIteratorE, i64 0, i32 0, i64 2), ptr %this, align 8
  %start = getelementptr inbounds i8, ptr %this, i64 392
  store ptr %newText, ptr %start, align 8
  %pos = getelementptr inbounds i8, ptr %this, i64 400
  %pos2 = getelementptr inbounds i8, ptr %other, i64 400
  %0 = load ptr, ptr %pos2, align 8
  %start3 = getelementptr inbounds i8, ptr %other, i64 392
  %1 = load ptr, ptr %start3, align 8
  %sub.ptr.lhs.cast = ptrtoint ptr %0 to i64
  %sub.ptr.rhs.cast = ptrtoint ptr %1 to i64
  %sub.ptr.sub = sub i64 %sub.ptr.lhs.cast, %sub.ptr.rhs.cast
  %add.ptr = getelementptr inbounds i8, ptr %newText, i64 %sub.ptr.sub
  store ptr %add.ptr, ptr %pos, align 8
  %limit4 = getelementptr inbounds i8, ptr %other, i64 408
  %2 = load ptr, ptr %limit4, align 8
  %cmp = icmp eq ptr %2, null
  %3 = load ptr, ptr %start3, align 8
  %sub.ptr.lhs.cast7 = ptrtoint ptr %2 to i64
  %sub.ptr.rhs.cast8 = ptrtoint ptr %3 to i64
  %sub.ptr.sub9 = sub i64 %sub.ptr.lhs.cast7, %sub.ptr.rhs.cast8
  %add.ptr11 = getelementptr inbounds i8, ptr %newText, i64 %sub.ptr.sub9
  %cond = select i1 %cmp, ptr null, ptr %add.ptr11
  %limit = getelementptr inbounds i8, ptr %this, i64 408
  store ptr %cond, ptr %limit, align 8
  ret void
}